(dp1
S'files'
p2
(dp3
S'travelplans___init__'
p4
(dp5
S'index'
p6
(dp7
S'html_filename'
p8
S'travelplans___init__.html'
p9
sS'name'
p10
S'travelplans/__init__'
p11
sS'nums'
p12
ccopy_reg
_reconstructor
p13
(ccoverage.results
Numbers
p14
c__builtin__
object
p15
NtRp16
(dp17
S'n_files'
p18
I1
sS'n_branches'
p19
I0
sS'n_statements'
p20
I0
sS'n_excluded'
p21
I0
sS'n_partial_branches'
p22
I0
sS'n_missing'
p23
I0
sS'n_missing_branches'
p24
I0
sbssS'hash'
p25
S'\xca\xf5\x9f\x7f\x88\xdfa\x831|T\x1d\xbc}\xa5v'
p26
ssS'manage'
p27
(dp28
g6
(dp29
g8
S'manage.html'
p30
sg10
g27
sg12
g13
(g14
g15
NtRp31
(dp32
g18
I1
sg19
I0
sg20
I6
sg21
I0
sg22
I0
sg23
I0
sg24
I0
sbssg25
S'~\x1c\xf2\xf0\xd8\xa8Bv\xa3\x1b\r\x88\x16\xb0j%'
p33
ssS'travelplans_views_manipulate_plans'
p34
(dp35
g6
(dp36
S'html_filename'
p37
S'travelplans_views_manipulate_plans.html'
p38
sS'name'
p39
S'travelplans/views/manipulate_plans'
p40
sS'nums'
p41
g13
(g14
g15
NtRp42
(dp43
g18
I1
sg19
I0
sg20
I61
sg21
I0
sg22
I0
sg23
I2
sg24
I0
sbssg25
S'\xdbs\t\xa7\xdd\x970\xeaxm\xe4e\xc4\x1e\x036'
p44
ssS'Ajourney_settings'
p45
(dp46
g6
(dp47
g8
S'Ajourney_settings.html'
p48
sg10
S'Ajourney/settings'
p49
sg12
g13
(g14
g15
NtRp50
(dp51
g18
I1
sg19
I0
sg20
I26
sg21
I0
sg22
I0
sg23
I0
sg24
I0
sbssg25
S'!\xe9~}\xa2zY\xf4zq\xa4u\xd1x\xdft'
p52
ssS'travelplans_urls'
p53
(dp54
g6
(dp55
g8
S'travelplans_urls.html'
p56
sg10
S'travelplans/urls'
p57
sg12
g13
(g14
g15
NtRp58
(dp59
g18
I1
sg19
I0
sg20
I3
sg21
I0
sg22
I0
sg23
I0
sg24
I0
sbssg25
S'4\xe4\xc8b\x15\xd5\xe4\xc3\xd3\xd9\xec\xd7\xed\xe5x^'
p60
ssS'travelplans_middleware'
p61
(dp62
g6
(dp63
g8
S'travelplans_middleware.html'
p64
sg10
S'travelplans/middleware'
p65
sg12
g13
(g14
g15
NtRp66
(dp67
g18
I1
sg19
I0
sg20
I10
sg21
I0
sg22
I0
sg23
I4
sg24
I0
sbssg25
S'\xf3\x12\xa5\x92\xea\xb1\x92pK\xd5\xb6\xab\x18\x06\xf9\x94'
p68
ssS'travelplans_views_login'
p69
(dp70
g6
(dp71
S'html_filename'
p72
S'travelplans_views_login.html'
p73
sS'name'
p74
S'travelplans/views/login'
p75
sS'nums'
p76
g13
(g14
g15
NtRp77
(dp78
g18
I1
sg19
I0
sg20
I35
sg21
I0
sg22
I0
sg23
I23
sg24
I0
sbssg25
S"'\xce\x8c,\xd4\x83H\x1d\x97+\x18\xef\x8f\xb5B\xea"
p79
ssS'travelplans_migrations___init__'
p80
(dp81
g6
(dp82
g8
S'travelplans_migrations___init__.html'
p83
sg10
S'travelplans/migrations/__init__'
p84
sg12
g13
(g14
g15
NtRp85
(dp86
g18
I1
sg19
I0
sg20
I0
sg21
I0
sg22
I0
sg23
I0
sg24
I0
sbssg25
S'\xca\xf5\x9f\x7f\x88\xdfa\x831|T\x1d\xbc}\xa5v'
p87
ssS'travelplans_facebook_proxy'
p88
(dp89
g6
(dp90
g8
S'travelplans_facebook_proxy.html'
p91
sg10
S'travelplans/facebook_proxy'
p92
sg12
g13
(g14
g15
NtRp93
(dp94
g18
I1
sg19
I0
sg20
I43
sg21
I0
sg22
I0
sg23
I34
sg24
I0
sbssg25
S'j\xe0\x11\xbf\x84\x8c\xb3\xc6c\xba\xb8\x06\x0f\x1fdw'
p95
ssS'travelplans_views_error_views'
p96
(dp97
g6
(dp98
g37
S'travelplans_views_error_views.html'
p99
sg39
S'travelplans/views/error_views'
p100
sg41
g13
(g14
g15
NtRp101
(dp102
g18
I1
sg19
I0
sg20
I5
sg21
I0
sg22
I0
sg23
I1
sg24
I0
sbssg25
S'\xd3\xc8l\xbfs\xaf2\x8c\xf2!n!\x99$o\x05'
p103
ssS'Ajourney_wsgi'
p104
(dp105
g6
(dp106
g8
S'Ajourney_wsgi.html'
p107
sg10
S'Ajourney/wsgi'
p108
sg12
g13
(g14
g15
NtRp109
(dp110
g18
I1
sg19
I0
sg20
I4
sg21
I0
sg22
I0
sg23
I4
sg24
I0
sbssg25
S'W\x1b\xd1k9*\xf4\x1d\x8bi\xa05\xc4\x12\x89\xbd'
p111
ssS'travelplans_plan_manager'
p112
(dp113
g6
(dp114
S'html_filename'
p115
S'travelplans_plan_manager.html'
p116
sS'name'
p117
S'travelplans/plan_manager'
p118
sS'nums'
p119
g13
(g14
g15
NtRp120
(dp121
g18
I1
sg19
I0
sg20
I76
sg21
I0
sg22
I0
sg23
I49
sg24
I0
sbssg25
S'\xed\xa7\xb2\xa6\x9e\xb3\x1fT2\xf9\xbdf|\xf7\x04\xab'
p122
ssS'travelplans_admin'
p123
(dp124
g6
(dp125
g8
S'travelplans_admin.html'
p126
sg10
S'travelplans/admin'
p127
sg12
g13
(g14
g15
NtRp128
(dp129
g18
I1
sg19
I0
sg20
I4
sg21
I0
sg22
I0
sg23
I0
sg24
I0
sbssg25
S'\x91\x84\xbc\xdd\x13\x14\xedDys\xeb\xb2\x12C\xabD'
p130
ssS'travelplans_views___init__'
p131
(dp132
g6
(dp133
g8
S'travelplans_views___init__.html'
p134
sg10
S'travelplans/views/__init__'
p135
sg12
g13
(g14
g15
NtRp136
(dp137
g18
I1
sg19
I0
sg20
I0
sg21
I0
sg22
I0
sg23
I0
sg24
I0
sbssg25
S'\xca\xf5\x9f\x7f\x88\xdfa\x831|T\x1d\xbc}\xa5v'
p138
ssS'travelplans_migrations_0001_initial'
p139
(dp140
g6
(dp141
g8
S'travelplans_migrations_0001_initial.html'
p142
sg10
S'travelplans/migrations/0001_initial'
p143
sg12
g13
(g14
g15
NtRp144
(dp145
g18
I1
sg19
I0
sg20
I6
sg21
I0
sg22
I0
sg23
I0
sg24
I0
sbssg25
S'\xb2\xce"z\x97KTWh\xe3]6\xcb\x9f\xdd\xad'
p146
ssS'travelplans_models'
p147
(dp148
g6
(dp149
g8
S'travelplans_models.html'
p150
sg10
S'travelplans/models'
p151
sg12
g13
(g14
g15
NtRp152
(dp153
g18
I1
sg19
I0
sg20
I18
sg21
I0
sg22
I0
sg23
I3
sg24
I0
sbssg25
S'\xb6}\xf3^\xaf\xc2\xe6\x1dW\xccOM\x92r\x7f6'
p154
ssS'travelplans_tests'
p155
(dp156
g6
(dp157
g37
S'travelplans_tests.html'
p158
sg39
S'travelplans/tests'
p159
sg41
g13
(g14
g15
NtRp160
(dp161
g18
I1
sg19
I0
sg20
I85
sg21
I0
sg22
I0
sg23
I0
sg24
I0
sbssg25
S'\xf63\xb7K\xa6@\xd4\xb5\x97\x95\xc9\xf4y=\xf6x'
p162
ssS'Ajourney___init__'
p163
(dp164
g6
(dp165
g8
S'Ajourney___init__.html'
p166
sg10
S'Ajourney/__init__'
p167
sg12
g13
(g14
g15
NtRp168
(dp169
g18
I1
sg19
I0
sg20
I0
sg21
I0
sg22
I0
sg23
I0
sg24
I0
sbssg25
S'\xca\xf5\x9f\x7f\x88\xdfa\x831|T\x1d\xbc}\xa5v'
p170
ssS'travelplans_views_view_plans'
p171
(dp172
g6
(dp173
g8
S'travelplans_views_view_plans.html'
p174
sg10
S'travelplans/views/view_plans'
p175
sg12
g13
(g14
g15
NtRp176
(dp177
g18
I1
sg19
I0
sg20
I63
sg21
I0
sg22
I0
sg23
I52
sg24
I0
sbssg25
S'\xaa\xc5\xe4\xb3\x04\x9ba\xablu\xcf\x05\xad\xb5\xf5\xb2'
p178
ssS'Ajourney_urls'
p179
(dp180
g6
(dp181
g8
S'Ajourney_urls.html'
p182
sg10
S'Ajourney/urls'
p183
sg12
g13
(g14
g15
NtRp184
(dp185
g18
I1
sg19
I0
sg20
I4
sg21
I0
sg22
I0
sg23
I0
sg24
I0
sbssg25
S'e/\xb8~\x85?\xff<a\x0e\x02\x85-\x1b\xae\x9b'
p186
ssS'travelplans_views_join_plan'
p187
(dp188
g6
(dp189
g8
S'travelplans_views_join_plan.html'
p190
sg10
S'travelplans/views/join_plan'
p191
sg12
g13
(g14
g15
NtRp192
(dp193
g18
I1
sg19
I0
sg20
I33
sg21
I0
sg22
I0
sg23
I27
sg24
I0
sbssg25
S'\x0e\xc01\xc2T&\xba\xe6\x07\xa5S\xfd\x19s\xb3\xe7'
p194
ssS'travelplans_migrations_0002_joinedplan'
p195
(dp196
g6
(dp197
g8
S'travelplans_migrations_0002_joinedplan.html'
p198
sg10
S'travelplans/migrations/0002_joinedplan'
p199
sg12
g13
(g14
g15
NtRp200
(dp201
g18
I1
sg19
I0
sg20
I6
sg21
I0
sg22
I0
sg23
I0
sg24
I0
sbssg25
S'\x13\xf9as\xfc\xd0&\xf7hN\x14J\x16.\xb3\x97'
p202
ssS'travelplans_views_share_plan'
p203
(dp204
g6
(dp205
g8
S'travelplans_views_share_plan.html'
p206
sg10
S'travelplans/views/share_plan'
p207
sg12
g13
(g14
g15
NtRp208
(dp209
g18
I1
sg19
I0
sg20
I20
sg21
I0
sg22
I0
sg23
I15
sg24
I0
sbssg25
S'\x0e\xad\x05\xdb\xd9\x1bo\xc3r\xd4\xbc\xaeQ\xa6\x84t'
p210
sssS'version'
p211
S'3.7.1'
p212
sS'settings'
p213
S'\x98\xa8x\xfe"r\xb5K\x98\xb1N\\\x99\x9e\xf3\xe5'
p214
sS'format'
p215
I1
s.