(dp1
S'files'
p2
(dp3
S'travelplans___init__'
p4
(dp5
S'index'
p6
(dp7
S'html_filename'
p8
S'travelplans___init__.html'
p9
sS'name'
p10
S'travelplans/__init__'
p11
sS'nums'
p12
ccopy_reg
_reconstructor
p13
(ccoverage.results
Numbers
p14
c__builtin__
object
p15
NtRp16
(dp17
S'n_files'
p18
I1
sS'n_branches'
p19
I0
sS'n_statements'
p20
I0
sS'n_excluded'
p21
I0
sS'n_partial_branches'
p22
I0
sS'n_missing'
p23
I0
sS'n_missing_branches'
p24
I0
sbssS'hash'
p25
S'\xca\xf5\x9f\x7f\x88\xdfa\x831|T\x1d\xbc}\xa5v'
p26
ssS'manage'
p27
(dp28
g6
(dp29
g8
S'manage.html'
p30
sg10
g27
sg12
g13
(g14
g15
NtRp31
(dp32
g18
I1
sg19
I0
sg20
I6
sg21
I0
sg22
I0
sg23
I0
sg24
I0
sbssg25
S'~\x1c\xf2\xf0\xd8\xa8Bv\xa3\x1b\r\x88\x16\xb0j%'
p33
ssS'travelplans_views_manipulate_plans'
p34
(dp35
g6
(dp36
S'html_filename'
p37
S'travelplans_views_manipulate_plans.html'
p38
sS'name'
p39
S'travelplans/views/manipulate_plans'
p40
sS'nums'
p41
g13
(g14
g15
NtRp42
(dp43
g18
I1
sg19
I0
sg20
I59
sg21
I0
sg22
I0
sg23
I59
sg24
I0
sbssg25
S'\xe9\xd8\xc0,\xd8\xd2\x97v\xe0\xdc\xa5\x80\xa6\xd4\xd3$'
p44
ssS'Ajourney_settings'
p45
(dp46
g6
(dp47
g8
S'Ajourney_settings.html'
p48
sg10
S'Ajourney/settings'
p49
sg12
g13
(g14
g15
NtRp50
(dp51
g18
I1
sg19
I0
sg20
I26
sg21
I0
sg22
I0
sg23
I0
sg24
I0
sbssg25
S'!\xe9~}\xa2zY\xf4zq\xa4u\xd1x\xdft'
p52
ssS'travelplans_urls'
p53
(dp54
g6
(dp55
g37
S'travelplans_urls.html'
p56
sg39
S'travelplans/urls'
p57
sg41
g13
(g14
g15
NtRp58
(dp59
g18
I1
sg19
I0
sg20
I3
sg21
I0
sg22
I0
sg23
I3
sg24
I0
sbssg25
S"\x0cV\x9a\x8e\x1e'\xe0\x9eu\x0c\xf1mI\x0c\x17\x00"
p60
ssS'travelplans_middleware'
p61
(dp62
g6
(dp63
g37
S'travelplans_middleware.html'
p64
sg39
S'travelplans/middleware'
p65
sg41
g13
(g14
g15
NtRp66
(dp67
g18
I1
sg19
I0
sg20
I10
sg21
I0
sg22
I0
sg23
I10
sg24
I0
sbssg25
S'\xd2\x9awF\xbdG]\xf1)\xb7\x7f\x99\xe4\x85\x8e\x9f'
p68
ssS'travelplans_views_login'
p69
(dp70
g6
(dp71
g8
S'travelplans_views_login.html'
p72
sg10
S'travelplans/views/login'
p73
sg12
g13
(g14
g15
NtRp74
(dp75
g18
I1
sg19
I0
sg20
I35
sg21
I0
sg22
I0
sg23
I35
sg24
I0
sbssg25
S'4\xc4\xf0\x12\x7f\x02\xfa\x14D\x9b\x00"\x14\x8f\xde\xdf'
p76
ssS'travelplans_migrations___init__'
p77
(dp78
g6
(dp79
g8
S'travelplans_migrations___init__.html'
p80
sg10
S'travelplans/migrations/__init__'
p81
sg12
g13
(g14
g15
NtRp82
(dp83
g18
I1
sg19
I0
sg20
I0
sg21
I0
sg22
I0
sg23
I0
sg24
I0
sbssg25
S'\xca\xf5\x9f\x7f\x88\xdfa\x831|T\x1d\xbc}\xa5v'
p84
ssS'travelplans_facebook_proxy'
p85
(dp86
g6
(dp87
g8
S'travelplans_facebook_proxy.html'
p88
sg10
S'travelplans/facebook_proxy'
p89
sg12
g13
(g14
g15
NtRp90
(dp91
g18
I1
sg19
I0
sg20
I43
sg21
I0
sg22
I0
sg23
I34
sg24
I0
sbssg25
S'j\xe0\x11\xbf\x84\x8c\xb3\xc6c\xba\xb8\x06\x0f\x1fdw'
p92
ssS'travelplans_views_error_views'
p93
(dp94
g6
(dp95
g37
S'travelplans_views_error_views.html'
p96
sg39
S'travelplans/views/error_views'
p97
sg41
g13
(g14
g15
NtRp98
(dp99
g18
I1
sg19
I0
sg20
I5
sg21
I0
sg22
I0
sg23
I5
sg24
I0
sbssg25
S'\xcaG\xda>\x1b\xda!\x8b:\xd2\x05\x01B\xf3\xf6\x90'
p100
ssS'Ajourney_wsgi'
p101
(dp102
g6
(dp103
g8
S'Ajourney_wsgi.html'
p104
sg10
S'Ajourney/wsgi'
p105
sg12
g13
(g14
g15
NtRp106
(dp107
g18
I1
sg19
I0
sg20
I4
sg21
I0
sg22
I0
sg23
I4
sg24
I0
sbssg25
S'W\x1b\xd1k9*\xf4\x1d\x8bi\xa05\xc4\x12\x89\xbd'
p108
ssS'travelplans_plan_manager'
p109
(dp110
g6
(dp111
g37
S'travelplans_plan_manager.html'
p112
sg39
S'travelplans/plan_manager'
p113
sg41
g13
(g14
g15
NtRp114
(dp115
g18
I1
sg19
I0
sg20
I76
sg21
I0
sg22
I0
sg23
I55
sg24
I0
sbssg25
S'\x05\x04\xf1\xb5y\xb7\x94\xf2\x90\xb5\xb1\x97\xa5rK '
p116
ssS'travelplans_admin'
p117
(dp118
g6
(dp119
g8
S'travelplans_admin.html'
p120
sg10
S'travelplans/admin'
p121
sg12
g13
(g14
g15
NtRp122
(dp123
g18
I1
sg19
I0
sg20
I4
sg21
I0
sg22
I0
sg23
I0
sg24
I0
sbssg25
S'\x91\x84\xbc\xdd\x13\x14\xedDys\xeb\xb2\x12C\xabD'
p124
ssS'travelplans_views___init__'
p125
(dp126
g6
(dp127
g37
S'travelplans_views___init__.html'
p128
sg39
S'travelplans/views/__init__'
p129
sg41
g13
(g14
g15
NtRp130
(dp131
g18
I1
sg19
I0
sg20
I0
sg21
I0
sg22
I0
sg23
I0
sg24
I0
sbssg25
S'\xe5P\x11)^\xf4>1D.\x0e\x0b\xa1\xf8[+'
p132
ssS'travelplans_migrations_0001_initial'
p133
(dp134
g6
(dp135
g8
S'travelplans_migrations_0001_initial.html'
p136
sg10
S'travelplans/migrations/0001_initial'
p137
sg12
g13
(g14
g15
NtRp138
(dp139
g18
I1
sg19
I0
sg20
I6
sg21
I0
sg22
I0
sg23
I0
sg24
I0
sbssg25
S'\xb2\xce"z\x97KTWh\xe3]6\xcb\x9f\xdd\xad'
p140
ssS'travelplans_models'
p141
(dp142
g6
(dp143
g8
S'travelplans_models.html'
p144
sg10
S'travelplans/models'
p145
sg12
g13
(g14
g15
NtRp146
(dp147
g18
I1
sg19
I0
sg20
I18
sg21
I0
sg22
I0
sg23
I3
sg24
I0
sbssg25
S'\xb6}\xf3^\xaf\xc2\xe6\x1dW\xccOM\x92r\x7f6'
p148
ssS'travelplans_tests'
p149
(dp150
g6
(dp151
g37
S'travelplans_tests.html'
p152
sg39
S'travelplans/tests'
p153
sg41
g13
(g14
g15
NtRp154
(dp155
g18
I1
sg19
I0
sg20
I30
sg21
I0
sg22
I0
sg23
I0
sg24
I0
sbssg25
S'4]\x01l&Q\x1f\xea\x12y\x0c1\x0c\x8a\x95<'
p156
ssS'Ajourney___init__'
p157
(dp158
g6
(dp159
g8
S'Ajourney___init__.html'
p160
sg10
S'Ajourney/__init__'
p161
sg12
g13
(g14
g15
NtRp162
(dp163
g18
I1
sg19
I0
sg20
I0
sg21
I0
sg22
I0
sg23
I0
sg24
I0
sbssg25
S'\xca\xf5\x9f\x7f\x88\xdfa\x831|T\x1d\xbc}\xa5v'
p164
ssS'travelplans_views_view_plans'
p165
(dp166
g6
(dp167
g37
S'travelplans_views_view_plans.html'
p168
sg39
S'travelplans/views/view_plans'
p169
sg41
g13
(g14
g15
NtRp170
(dp171
g18
I1
sg19
I0
sg20
I62
sg21
I0
sg22
I0
sg23
I62
sg24
I0
sbssg25
S'@3\x07,\x0bMY\xb0-"\xebf`f\x95\xbf'
p172
ssS'Ajourney_urls'
p173
(dp174
g6
(dp175
g37
S'Ajourney_urls.html'
p176
sg39
S'Ajourney/urls'
p177
sg41
g13
(g14
g15
NtRp178
(dp179
g18
I1
sg19
I0
sg20
I4
sg21
I0
sg22
I0
sg23
I4
sg24
I0
sbssg25
S'\x93\x14\xa7Yco\x02\xa0\x99\xb6\x13Y\xc9\x0e+\xb8'
p180
ssS'travelplans_views_join_plan'
p181
(dp182
g6
(dp183
g37
S'travelplans_views_join_plan.html'
p184
sg39
S'travelplans/views/join_plan'
p185
sg41
g13
(g14
g15
NtRp186
(dp187
g18
I1
sg19
I0
sg20
I33
sg21
I0
sg22
I0
sg23
I33
sg24
I0
sbssg25
S'\x0f\xc7\xa6\xbb\x9b"\xfc0\x9a\xbc7\xb1\xf2S\t\xc1'
p188
ssS'travelplans_migrations_0002_joinedplan'
p189
(dp190
g6
(dp191
g8
S'travelplans_migrations_0002_joinedplan.html'
p192
sg10
S'travelplans/migrations/0002_joinedplan'
p193
sg12
g13
(g14
g15
NtRp194
(dp195
g18
I1
sg19
I0
sg20
I6
sg21
I0
sg22
I0
sg23
I0
sg24
I0
sbssg25
S'\x13\xf9as\xfc\xd0&\xf7hN\x14J\x16.\xb3\x97'
p196
ssS'travelplans_views_share_plan'
p197
(dp198
g6
(dp199
g37
S'travelplans_views_share_plan.html'
p200
sg39
S'travelplans/views/share_plan'
p201
sg41
g13
(g14
g15
NtRp202
(dp203
g18
I1
sg19
I0
sg20
I20
sg21
I0
sg22
I0
sg23
I20
sg24
I0
sbssg25
S"\xc4\xbb\x1e^\x83\x18G\xef\x85p0R'\xae\n\x9b"
p204
sssS'version'
p205
S'3.7.1'
p206
sS'settings'
p207
S'\x98\xa8x\xfe"r\xb5K\x98\xb1N\\\x99\x9e\xf3\xe5'
p208
sS'format'
p209
I1
s.